target datalayout = "e-m:e-p270:32:32-p271:32:32-p272:64:64-i64:64-i128:128-f80:128-n8:16:32:64-S128"
target triple = "x86_64-pc-linux-gnu"

%struct._zend_array = type { %struct._zend_refcounted_h, %union.anon.17, i32, %union.anon.19, i32, i32, i32, i32, i64, ptr }
%struct._zend_refcounted_h = type { i32, %union.anon.16 }
%union.anon.16 = type { i32 }
%union.anon.17 = type { i32 }
%union.anon.19 = type { ptr }
%struct._zend_op = type { ptr, %union._znode_op, %union._znode_op, %union._znode_op, i32, i32, i8, i8, i8, i8 }
%union._znode_op = type { i32 }
%struct._ir_ctx = type { ptr, i32, i32, i32, i32, i32, i32, i32, i32, i32, i32, %struct._ir_insn, ptr, ptr, ptr, i32, i32, i32, ptr, ptr, ptr, ptr, ptr, i32, i32, i64, i32, i32, i32, i64, i32, i32, i32, i32, ptr, ptr, ptr, ptr, ptr, ptr, %union.anon.13, ptr, i32, i32, i32, i64, i32, i32, i32, ptr, ptr, ptr, ptr, %struct._ir_strtab, [61 x i32], [14 x i32] }
%struct._ir_insn = type { %struct.anon, %union.anon.5 }
%struct.anon = type { %union.anon, %union.anon.4 }
%union.anon = type { i32 }
%union.anon.4 = type { i32 }
%union.anon.5 = type { %union._ir_val }
%union._ir_val = type { double }
%union.anon.13 = type { ptr }
%struct._ir_strtab = type { ptr, i32, i32, i32, i32, ptr, i32, i32 }
%struct._zend_jit_ctx = type { %struct._ir_ctx, ptr, i8, i8, i8, i32, i32, i32, i32, i32, ptr, ptr, ptr, ptr, ptr, ptr, ptr, ptr, ptr, i32, ptr, i32, %struct._zend_array, [32 x i32] }
%struct._zend_jit_reg_var = type { i32, i32 }

; Function Attrs: nounwind uwtable
define internal i32 @zend_jit_store_var_if_necessary(ptr noundef %0, i32 noundef %1, i64 noundef %2, i32 noundef %3) #0 {
  %5 = alloca i32, align 4
  %6 = alloca ptr, align 8
  %7 = alloca i32, align 4
  %8 = alloca i64, align 8
  %9 = alloca i32, align 4
  %10 = alloca i64, align 8
  store ptr %0, ptr %6, align 8
  store i32 %1, ptr %7, align 4
  store i64 %2, ptr %8, align 8
  store i32 %3, ptr %9, align 4
  %11 = load i64, ptr %8, align 8
  %12 = and i64 %11, 3
  %13 = icmp eq i64 %12, 2
  br i1 %13, label %14, label %52

14:                                               ; preds = %4
  %15 = load ptr, ptr %6, align 8
  %16 = getelementptr inbounds %struct._zend_jit_ctx, ptr %15, i32 0, i32 18
  %17 = load ptr, ptr %16, align 8
  %18 = icmp ne ptr %17, null
  br i1 %18, label %19, label %40

19:                                               ; preds = %14
  %20 = load ptr, ptr %6, align 8
  %21 = getelementptr inbounds %struct._zend_jit_ctx, ptr %20, i32 0, i32 18
  %22 = load ptr, ptr %21, align 8
  %23 = load i64, ptr %8, align 8
  %24 = lshr i64 %23, 2
  %25 = getelementptr inbounds %struct._zend_jit_reg_var, ptr %22, i64 %24
  %26 = getelementptr inbounds %struct._zend_jit_reg_var, ptr %25, i32 0, i32 0
  %27 = load i32, ptr %26, align 4
  %28 = icmp ne i32 %27, 0
  br i1 %28, label %29, label %40

29:                                               ; preds = %19
  %30 = load ptr, ptr %6, align 8
  %31 = getelementptr inbounds %struct._zend_jit_ctx, ptr %30, i32 0, i32 18
  %32 = load ptr, ptr %31, align 8
  %33 = load i64, ptr %8, align 8
  %34 = lshr i64 %33, 2
  %35 = getelementptr inbounds %struct._zend_jit_reg_var, ptr %32, i64 %34
  %36 = getelementptr inbounds %struct._zend_jit_reg_var, ptr %35, i32 0, i32 1
  %37 = load i32, ptr %36, align 4
  %38 = and i32 %37, 2
  %39 = icmp ne i32 %38, 0
  br i1 %39, label %41, label %52

40:                                               ; preds = %19, %14
  br i1 false, label %41, label %52

41:                                               ; preds = %40, %29
  %42 = load i32, ptr %7, align 4
  %43 = sext i32 %42 to i64
  %44 = shl i64 %43, 8
  %45 = or i64 %44, 56
  %46 = or i64 %45, 1
  store i64 %46, ptr %10, align 8
  %47 = load ptr, ptr %6, align 8
  %48 = load i64, ptr %8, align 8
  %49 = load i64, ptr %10, align 8
  %50 = load i32, ptr %9, align 4
  %51 = call i32 @zend_jit_spill_store(ptr noundef %47, i64 noundef %48, i64 noundef %49, i32 noundef %50, i1 noundef zeroext true)
  store i32 %51, ptr %5, align 4
  br label %53

52:                                               ; preds = %40, %29, %4
  store i32 1, ptr %5, align 4
  br label %53

53:                                               ; preds = %52, %41
  %54 = load i32, ptr %5, align 4
  ret i32 %54
}

; Function Attrs: nounwind uwtable
define internal i32 @zend_jit_math(ptr noundef %0, ptr noundef %1, i32 noundef %2, i64 noundef %3, i32 noundef %4, i64 noundef %5, i32 noundef %6, i32 noundef %7, i64 noundef %8, i32 noundef %9, i32 noundef %10) #0 {
  %12 = alloca i32, align 4
  %13 = alloca ptr, align 8
  %14 = alloca ptr, align 8
  %15 = alloca i32, align 4
  %16 = alloca i64, align 8
  %17 = alloca i32, align 4
  %18 = alloca i64, align 8
  %19 = alloca i32, align 4
  %20 = alloca i32, align 4
  %21 = alloca i64, align 8
  %22 = alloca i32, align 4
  %23 = alloca i32, align 4
  store ptr %0, ptr %13, align 8
  store ptr %1, ptr %14, align 8
  store i32 %2, ptr %15, align 4
  store i64 %3, ptr %16, align 8
  store i32 %4, ptr %17, align 4
  store i64 %5, ptr %18, align 8
  store i32 %6, ptr %19, align 4
  store i32 %7, ptr %20, align 4
  store i64 %8, ptr %21, align 8
  store i32 %9, ptr %22, align 4
  store i32 %10, ptr %23, align 4
  %24 = load i32, ptr %15, align 4
  %25 = and i32 %24, 1
  %26 = icmp ne i32 %25, 0
  br i1 %26, label %32, label %27

27:                                               ; preds = %11
  %28 = load i32, ptr %17, align 4
  %29 = and i32 %28, 1
  %30 = icmp ne i32 %29, 0
  %31 = xor i1 %30, true
  br label %32

32:                                               ; preds = %27, %11
  %33 = phi i1 [ false, %11 ], [ %31, %27 ]
  call void @llvm.assume(i1 %33)
  %34 = load ptr, ptr %13, align 8
  %35 = load ptr, ptr %14, align 8
  %36 = load ptr, ptr %14, align 8
  %37 = getelementptr inbounds %struct._zend_op, ptr %36, i32 0, i32 6
  %38 = load i8, ptr %37, align 4
  %39 = load ptr, ptr %14, align 8
  %40 = getelementptr inbounds %struct._zend_op, ptr %39, i32 0, i32 7
  %41 = load i8, ptr %40, align 1
  %42 = load ptr, ptr %14, align 8
  %43 = getelementptr inbounds %struct._zend_op, ptr %42, i32 0, i32 1
  %44 = load i64, ptr %16, align 8
  %45 = load i32, ptr %15, align 4
  %46 = load ptr, ptr %14, align 8
  %47 = getelementptr inbounds %struct._zend_op, ptr %46, i32 0, i32 8
  %48 = load i8, ptr %47, align 2
  %49 = load ptr, ptr %14, align 8
  %50 = getelementptr inbounds %struct._zend_op, ptr %49, i32 0, i32 2
  %51 = load i64, ptr %18, align 8
  %52 = load i32, ptr %17, align 4
  %53 = load ptr, ptr %14, align 8
  %54 = getelementptr inbounds %struct._zend_op, ptr %53, i32 0, i32 3
  %55 = load i32, ptr %54, align 8
  %56 = load i64, ptr %21, align 8
  %57 = load i32, ptr %20, align 4
  %58 = load i32, ptr %19, align 4
  %59 = load i32, ptr %22, align 4
  %60 = load i32, ptr %23, align 4
  %61 = getelementptr inbounds %union._znode_op, ptr %43, i32 0, i32 0
  %62 = load i32, ptr %61, align 8
  %63 = getelementptr inbounds %union._znode_op, ptr %50, i32 0, i32 0
  %64 = load i32, ptr %63, align 4
  %65 = call i32 @zend_jit_math_helper(ptr noundef %34, ptr noundef %35, i8 noundef zeroext %38, i8 noundef zeroext %41, i32 %62, i64 noundef %44, i32 noundef %45, i8 noundef zeroext %48, i32 %64, i64 noundef %51, i32 noundef %52, i32 noundef %55, i64 noundef %56, i32 noundef %57, i32 noundef %58, i32 noundef %59, i32 noundef %60)
  %66 = icmp ne i32 %65, 0
  br i1 %66, label %68, label %67

67:                                               ; preds = %32
  store i32 0, ptr %12, align 4
  br label %79

68:                                               ; preds = %32
  %69 = load ptr, ptr %13, align 8
  %70 = load ptr, ptr %14, align 8
  %71 = getelementptr inbounds %struct._zend_op, ptr %70, i32 0, i32 3
  %72 = load i32, ptr %71, align 8
  %73 = load i64, ptr %21, align 8
  %74 = load i32, ptr %20, align 4
  %75 = call i32 @zend_jit_store_var_if_necessary(ptr noundef %69, i32 noundef %72, i64 noundef %73, i32 noundef %74)
  %76 = icmp ne i32 %75, 0
  br i1 %76, label %78, label %77

77:                                               ; preds = %68
  store i32 0, ptr %12, align 4
  br label %79

78:                                               ; preds = %68
  store i32 1, ptr %12, align 4
  br label %79

79:                                               ; preds = %78, %77, %67
  %80 = load i32, ptr %12, align 4
  ret i32 %80
}