; Function Attrs: nounwind uwtable
define internal fastcc noundef i32 @zend_jit_math(ptr noundef %0, ptr noundef %1, i32 noundef %2, i64 noundef %3, i32 noundef %4, i64 noundef %5, i32 noundef %6, i32 noundef %7, i64 noundef %8, i32 noundef %9, i32 noundef %10) unnamed_addr #0 {
  %12 = or i32 %4, %2
  %13 = and i32 %12, 1
  %14 = icmp eq i32 %13, 0
  tail call void @llvm.assume(i1 %14)
  %15 = getelementptr inbounds i8, ptr %1, i64 28
  %16 = load i8, ptr %15, align 4
  %17 = getelementptr inbounds i8, ptr %1, i64 29
  %18 = load i8, ptr %17, align 1
  %19 = getelementptr inbounds i8, ptr %1, i64 8
  %20 = getelementptr inbounds i8, ptr %1, i64 30
  %21 = load i8, ptr %20, align 2
  %22 = getelementptr inbounds i8, ptr %1, i64 12
  %23 = getelementptr inbounds i8, ptr %1, i64 16
  %24 = load i32, ptr %23, align 8
  %25 = load i32, ptr %19, align 8
  %26 = load i32, ptr %22, align 4
  %27 = tail call fastcc i32 @zend_jit_math_helper(ptr noundef %0, ptr noundef %1, i8 noundef zeroext %16, i8 noundef zeroext %18, i32 %25, i64 noundef %3, i32 noundef %2, i8 noundef zeroext %21, i32 %26, i64 noundef %5, i32 noundef %4, i32 noundef %24, i64 noundef %8, i32 noundef %7, i32 noundef %6, i32 noundef %9, i32 noundef %10), !range !7
  %.not = icmp eq i32 %27, 0
  br i1 %.not, label %zend_jit_store_var_if_necessary.exit, label %28

28:                                               ; preds = %11
  %29 = load i32, ptr %23, align 8
  %30 = and i64 %8, 3
  %31 = icmp eq i64 %30, 2
  br i1 %31, label %32, label %zend_jit_store_var_if_necessary.exit

32:                                               ; preds = %28
  %33 = getelementptr inbounds i8, ptr %0, i64 776
  %34 = load ptr, ptr %33, align 8
  %.not.i = icmp eq ptr %34, null
  br i1 %.not.i, label %zend_jit_store_var_if_necessary.exit, label %35

35:                                               ; preds = %32
  %36 = lshr i64 %8, 2
  %37 = getelementptr inbounds %struct._zend_jit_reg_var, ptr %34, i64 %36
  %38 = load i32, ptr %37, align 4
  %.not12.i = icmp eq i32 %38, 0
  br i1 %.not12.i, label %zend_jit_store_var_if_necessary.exit, label %39

39:                                               ; preds = %35
  %40 = getelementptr inbounds i8, ptr %37, i64 4
  %41 = load i32, ptr %40, align 4
  %42 = and i32 %41, 2
  %.not13.i = icmp eq i32 %42, 0
  br i1 %.not13.i, label %zend_jit_store_var_if_necessary.exit, label %43

43:                                               ; preds = %39
  %44 = sext i32 %29 to i64
  %45 = shl nsw i64 %44, 8
  %46 = or disjoint i64 %45, 57
  tail call fastcc void @zend_jit_spill_store(ptr noundef nonnull %0, i64 noundef %8, i64 noundef %46, i32 noundef %7, i1 noundef zeroext true)
  br label %zend_jit_store_var_if_necessary.exit

zend_jit_store_var_if_necessary.exit:             ; preds = %43, %39, %35, %32, %28, %11
  %.0 = phi i32 [ 0, %11 ], [ 1, %28 ], [ 1, %32 ], [ 1, %35 ], [ 1, %39 ], [ 1, %43 ]
  ret i32 %.0
}